target datalayout = "e-m:e-p270:32:32-p271:32:32-p272:64:64-i64:64-i128:128-f80:128-n8:16:32:64-S128"
target triple = "x86_64-unknown-linux-gnu"

%"class.std::set.0" = type { %"class.std::_Rb_tree.1" }
%"class.std::_Rb_tree.1" = type { %"struct.std::_Rb_tree<QuantLib::Observer *, QuantLib::Observer *, std::_Identity<QuantLib::Observer *>, std::less<QuantLib::Observer *>>::_Rb_tree_impl" }
%"struct.std::_Rb_tree<QuantLib::Observer *, QuantLib::Observer *, std::_Identity<QuantLib::Observer *>, std::less<QuantLib::Observer *>>::_Rb_tree_impl" = type { [8 x i8], %"struct.std::_Rb_tree_header" }
%"struct.std::_Rb_tree_header" = type { %"struct.std::_Rb_tree_node_base", i64 }
%"struct.std::_Rb_tree_node_base" = type { i32, ptr, ptr, ptr }
%"class.QuantLib::Date" = type { i64 }
%"class.std::set" = type { %"class.std::_Rb_tree" }
%"class.std::_Rb_tree" = type { %"struct.std::_Rb_tree<boost::shared_ptr<QuantLib::Observable>, boost::shared_ptr<QuantLib::Observable>, std::_Identity<boost::shared_ptr<QuantLib::Observable>>, std::less<boost::shared_ptr<QuantLib::Observable>>>::_Rb_tree_impl" }
%"struct.std::_Rb_tree<boost::shared_ptr<QuantLib::Observable>, boost::shared_ptr<QuantLib::Observable>, std::_Identity<boost::shared_ptr<QuantLib::Observable>>, std::less<boost::shared_ptr<QuantLib::Observable>>>::_Rb_tree_impl" = type { [8 x i8], %"struct.std::_Rb_tree_header" }
%"class.QuantLib::Observable" = type { ptr, %"class.std::set.0" }
%"class.QuantLib::Observer" = type { ptr, %"class.std::set" }
%"class.QuantLib::Coupon" = type { %"class.QuantLib::CashFlow.base", %"class.QuantLib::Date", double, %"class.QuantLib::Date", %"class.QuantLib::Date", %"class.QuantLib::Date", %"class.QuantLib::Date", %"class.QuantLib::Date", double, %"class.QuantLib::Observable", %"class.QuantLib::Observer" }
%"class.QuantLib::CashFlow.base" = type <{ %"class.QuantLib::Event.base", %"class.QuantLib::LazyObject.base" }>
%"class.QuantLib::Event.base" = type { ptr }
%"class.QuantLib::LazyObject.base" = type <{ ptr, i8, i8, i8, i8 }>

; Function Attrs: inlinehint mustprogress nounwind uwtable
define linkonce_odr noundef zeroext i1 @_ZN8QuantLibltERKNS_4DateES2_(ptr noundef nonnull align 8 dereferenceable(8) %d1, ptr noundef nonnull align 8 dereferenceable(8) %d2) #5 comdat {
entry:
  %d1.addr = alloca ptr, align 8
  %d2.addr = alloca ptr, align 8
  store ptr %d1, ptr %d1.addr, align 8, !tbaa !3
  store ptr %d2, ptr %d2.addr, align 8, !tbaa !3
  %0 = load ptr, ptr %d1.addr, align 8, !tbaa !3
  %call = call noundef i64 @_ZNK8QuantLib4Date12serialNumberEv(ptr noundef nonnull align 8 dereferenceable(8) %0)
  %1 = load ptr, ptr %d2.addr, align 8, !tbaa !3
  %call1 = call noundef i64 @_ZNK8QuantLib4Date12serialNumberEv(ptr noundef nonnull align 8 dereferenceable(8) %1)
  %cmp = icmp slt i64 %call, %call1
  ret i1 %cmp
}

; Function Attrs: inlinehint mustprogress nounwind uwtable
define linkonce_odr noundef i64 @_ZNK8QuantLib4Date12serialNumberEv(ptr noundef nonnull align 8 dereferenceable(8) %this) #5 comdat align 2 {
entry:
  %this.addr = alloca ptr, align 8
  store ptr %this, ptr %this.addr, align 8, !tbaa !3
  %this1 = load ptr, ptr %this.addr, align 8
  %serialNumber_ = getelementptr inbounds nuw %"class.QuantLib::Date", ptr %this1, i32 0, i32 0
  %0 = load i64, ptr %serialNumber_, align 8, !tbaa !177
  ret i64 %0
}

; Function Attrs: inlinehint mustprogress nounwind uwtable
define linkonce_odr noundef nonnull align 8 dereferenceable(8) ptr @_ZSt3minIN8QuantLib4DateEERKT_S4_S4_(ptr noundef nonnull align 8 dereferenceable(8) %__a, ptr noundef nonnull align 8 dereferenceable(8) %__b) #5 comdat {
entry:
  %retval = alloca ptr, align 8
  %__a.addr = alloca ptr, align 8
  %__b.addr = alloca ptr, align 8
  store ptr %__a, ptr %__a.addr, align 8, !tbaa !3
  store ptr %__b, ptr %__b.addr, align 8, !tbaa !3
  %0 = load ptr, ptr %__b.addr, align 8, !tbaa !3
  %1 = load ptr, ptr %__a.addr, align 8, !tbaa !3
  %call = call noundef zeroext i1 @_ZN8QuantLibltERKNS_4DateES2_(ptr noundef nonnull align 8 dereferenceable(8) %0, ptr noundef nonnull align 8 dereferenceable(8) %1)
  br i1 %call, label %if.then, label %if.end

if.then:                                          ; preds = %entry
  %2 = load ptr, ptr %__b.addr, align 8, !tbaa !3
  store ptr %2, ptr %retval, align 8
  br label %return

if.end:                                           ; preds = %entry
  %3 = load ptr, ptr %__a.addr, align 8, !tbaa !3
  store ptr %3, ptr %retval, align 8
  br label %return

return:                                           ; preds = %if.end, %if.then
  %4 = load ptr, ptr %retval, align 8
  ret ptr %4
}

; Function Attrs: inlinehint mustprogress nounwind uwtable
define linkonce_odr noundef zeroext i1 @_ZN8QuantLibgtERKNS_4DateES2_(ptr noundef nonnull align 8 dereferenceable(8) %d1, ptr noundef nonnull align 8 dereferenceable(8) %d2) #5 comdat {
entry:
  %d1.addr = alloca ptr, align 8
  %d2.addr = alloca ptr, align 8
  store ptr %d1, ptr %d1.addr, align 8, !tbaa !3
  store ptr %d2, ptr %d2.addr, align 8, !tbaa !3
  %0 = load ptr, ptr %d1.addr, align 8, !tbaa !3
  %call = call noundef i64 @_ZNK8QuantLib4Date12serialNumberEv(ptr noundef nonnull align 8 dereferenceable(8) %0)
  %1 = load ptr, ptr %d2.addr, align 8, !tbaa !3
  %call1 = call noundef i64 @_ZNK8QuantLib4Date12serialNumberEv(ptr noundef nonnull align 8 dereferenceable(8) %1)
  %cmp = icmp sgt i64 %call, %call1
  ret i1 %cmp
}

; Function Attrs: inlinehint mustprogress nounwind uwtable
define linkonce_odr noundef zeroext i1 @_ZN8QuantLibleERKNS_4DateES2_(ptr noundef nonnull align 8 dereferenceable(8) %d1, ptr noundef nonnull align 8 dereferenceable(8) %d2) #5 comdat {
entry:
  %d1.addr = alloca ptr, align 8
  %d2.addr = alloca ptr, align 8
  store ptr %d1, ptr %d1.addr, align 8, !tbaa !3
  store ptr %d2, ptr %d2.addr, align 8, !tbaa !3
  %0 = load ptr, ptr %d1.addr, align 8, !tbaa !3
  %call = call noundef i64 @_ZNK8QuantLib4Date12serialNumberEv(ptr noundef nonnull align 8 dereferenceable(8) %0)
  %1 = load ptr, ptr %d2.addr, align 8, !tbaa !3
  %call1 = call noundef i64 @_ZNK8QuantLib4Date12serialNumberEv(ptr noundef nonnull align 8 dereferenceable(8) %1)
  %cmp = icmp sle i64 %call, %call1
  ret i1 %cmp
}

; Function Attrs: mustprogress uwtable
define noundef double @_ZNK8QuantLib22OvernightIndexedCoupon13accruedAmountERKNS_4DateE(ptr noundef nonnull align 8 dereferenceable(313) %this, ptr noundef nonnull align 8 dereferenceable(8) %d) unnamed_addr #2 align 2 {
entry:
  %retval = alloca double, align 8
  %this.addr = alloca ptr, align 8
  %d.addr = alloca ptr, align 8
  store ptr %this, ptr %this.addr, align 8, !tbaa !3
  store ptr %d, ptr %d.addr, align 8, !tbaa !3
  %this1 = load ptr, ptr %this.addr, align 8
  %0 = load ptr, ptr %d.addr, align 8, !tbaa !3
  %accrualStartDate_ = getelementptr inbounds nuw %"class.QuantLib::Coupon", ptr %this1, i32 0, i32 3
  %call = call noundef zeroext i1 @_ZN8QuantLibleERKNS_4DateES2_(ptr noundef nonnull align 8 dereferenceable(8) %0, ptr noundef nonnull align 8 dereferenceable(8) %accrualStartDate_)
  br i1 %call, label %if.then, label %lor.lhs.false

lor.lhs.false:                                    ; preds = %entry
  %1 = load ptr, ptr %d.addr, align 8, !tbaa !3
  %paymentDate_ = getelementptr inbounds nuw %"class.QuantLib::Coupon", ptr %this1, i32 0, i32 1
  %call2 = call noundef zeroext i1 @_ZN8QuantLibgtERKNS_4DateES2_(ptr noundef nonnull align 8 dereferenceable(8) %1, ptr noundef nonnull align 8 dereferenceable(8) %paymentDate_)
  br i1 %call2, label %if.then, label %if.else

if.then:                                          ; preds = %lor.lhs.false, %entry
  store double 0.000000e+00, ptr %retval, align 8
  br label %return

if.else:                                          ; preds = %lor.lhs.false
  %2 = load ptr, ptr %d.addr, align 8, !tbaa !3
  %call3 = call noundef zeroext i1 @_ZNK8QuantLib8CashFlow15tradingExCouponERKNS_4DateE(ptr noundef nonnull align 8 dereferenceable(20) %this1, ptr noundef nonnull align 8 dereferenceable(8) %2)
  br i1 %call3, label %if.then4, label %if.else9

if.then4:                                         ; preds = %if.else
  %vtable = load ptr, ptr %this1, align 8, !tbaa !20
  %vfn = getelementptr inbounds ptr, ptr %vtable, i64 8
  %3 = load ptr, ptr %vfn, align 8
  %call5 = call noundef double %3(ptr noundef nonnull align 8 dereferenceable(88) %this1)
  %4 = load ptr, ptr %d.addr, align 8, !tbaa !3
  %call6 = call noundef double @_ZNK8QuantLib22OvernightIndexedCoupon11averageRateERKNS_4DateE(ptr noundef nonnull align 8 dereferenceable(313) %this1, ptr noundef nonnull align 8 dereferenceable(8) %4)
  %mul = fmul double %call5, %call6
  %5 = load ptr, ptr %d.addr, align 8, !tbaa !3
  %call7 = call noundef double @_ZNK8QuantLib6Coupon13accruedPeriodERKNS_4DateE(ptr noundef nonnull align 8 dereferenceable(88) %this1, ptr noundef nonnull align 8 dereferenceable(8) %5)
  %mul8 = fmul double %mul, %call7
  store double %mul8, ptr %retval, align 8
  br label %return

if.else9:                                         ; preds = %if.else
  %vtable10 = load ptr, ptr %this1, align 8, !tbaa !20
  %vfn11 = getelementptr inbounds ptr, ptr %vtable10, i64 8
  %6 = load ptr, ptr %vfn11, align 8
  %call12 = call noundef double %6(ptr noundef nonnull align 8 dereferenceable(88) %this1)
  %7 = load ptr, ptr %d.addr, align 8, !tbaa !3
  %accrualEndDate_ = getelementptr inbounds nuw %"class.QuantLib::Coupon", ptr %this1, i32 0, i32 4
  %call13 = call noundef nonnull align 8 dereferenceable(8) ptr @_ZSt3minIN8QuantLib4DateEERKT_S4_S4_(ptr noundef nonnull align 8 dereferenceable(8) %7, ptr noundef nonnull align 8 dereferenceable(8) %accrualEndDate_)
  %call14 = call noundef double @_ZNK8QuantLib22OvernightIndexedCoupon11averageRateERKNS_4DateE(ptr noundef nonnull align 8 dereferenceable(313) %this1, ptr noundef nonnull align 8 dereferenceable(8) %call13)
  %mul15 = fmul double %call12, %call14
  %8 = load ptr, ptr %d.addr, align 8, !tbaa !3
  %call16 = call noundef double @_ZNK8QuantLib6Coupon13accruedPeriodERKNS_4DateE(ptr noundef nonnull align 8 dereferenceable(88) %this1, ptr noundef nonnull align 8 dereferenceable(8) %8)
  %mul17 = fmul double %mul15, %call16
  store double %mul17, ptr %retval, align 8
  br label %return

return:                                           ; preds = %if.else9, %if.then4, %if.then
  %9 = load double, ptr %retval, align 8
  ret double %9
}