; Function Attrs: mustprogress uwtable
define noundef double @_ZNK8QuantLib22OvernightIndexedCoupon13accruedAmountERKNS_4DateE(ptr noundef nonnull align 8 dereferenceable(313) %this, ptr noundef nonnull align 8 dereferenceable(8) %d) unnamed_addr #8 align 2 {
entry:
  %accrualStartDate_ = getelementptr inbounds nuw i8, ptr %this, i64 40
  %0 = load i64, ptr %d, align 8, !tbaa !92
  %1 = load i64, ptr %accrualStartDate_, align 8, !tbaa !92
  %cmp.i = icmp sle i64 %0, %1
  %paymentDate_ = getelementptr inbounds nuw i8, ptr %this, i64 24
  %2 = load i64, ptr %paymentDate_, align 8
  %cmp.i7 = icmp sgt i64 %0, %2
  %or.cond = select i1 %cmp.i, i1 true, i1 %cmp.i7
  br i1 %or.cond, label %return, label %if.else

if.else:                                          ; preds = %entry
  %call3 = tail call noundef zeroext i1 @_ZNK8QuantLib8CashFlow15tradingExCouponERKNS_4DateE(ptr noundef nonnull align 8 dereferenceable(20) %this, ptr noundef nonnull align 8 dereferenceable(8) %d)
  %vtable = load ptr, ptr %this, align 8, !tbaa !33
  %vfn = getelementptr inbounds i8, ptr %vtable, i64 64
  %3 = load ptr, ptr %vfn, align 8
  %call5 = tail call noundef double %3(ptr noundef nonnull align 8 dereferenceable(88) %this)
  %accrualEndDate_ = getelementptr inbounds nuw i8, ptr %this, i64 48
  %4 = load i64, ptr %accrualEndDate_, align 8
  %5 = load i64, ptr %d, align 8
  %cmp.i.i = icmp slt i64 %4, %5
  %__b.__a.i = select i1 %cmp.i.i, ptr %accrualEndDate_, ptr %d
  %__b.__a.i.sink = select i1 %call3, ptr %d, ptr %__b.__a.i
  %call14 = tail call noundef double @_ZNK8QuantLib22OvernightIndexedCoupon11averageRateERKNS_4DateE(ptr noundef nonnull align 8 dereferenceable(313) %this, ptr noundef nonnull align 8 dereferenceable(8) %__b.__a.i.sink)
  %mul15 = fmul double %call5, %call14
  %call16 = tail call noundef double @_ZNK8QuantLib6Coupon13accruedPeriodERKNS_4DateE(ptr noundef nonnull align 8 dereferenceable(88) %this, ptr noundef nonnull align 8 dereferenceable(8) %d)
  %mul17 = fmul double %mul15, %call16
  br label %return

return:                                           ; preds = %if.else, %entry
  %retval.0 = phi double [ 0.000000e+00, %entry ], [ %mul17, %if.else ]
  ret double %retval.0
}